; Function Attrs: nounwind uwtable
define dso_local noundef i32 @errhidecontext(i1 noundef zeroext %0) local_unnamed_addr #3 {
  %2 = load i32, ptr @errordata_stack_depth, align 4
  %3 = icmp slt i32 %2, 0
  br i1 %3, label %4, label %7

4:                                                ; preds = %1
  store i32 -1, ptr @errordata_stack_depth, align 4
  %5 = tail call zeroext i1 @errstart_cold(i32 noundef 21, ptr noundef null) #33
  tail call void @llvm.assume(i1 %5)
  %6 = tail call i32 (ptr, ...) @errmsg_internal(ptr noundef nonnull @.str.1)
  tail call void @errfinish(ptr noundef nonnull @.str.2, i32 noundef 1435, ptr noundef nonnull @__func__.errhidecontext)
  unreachable

7:                                                ; preds = %1
  %8 = zext nneg i32 %2 to i64
  %9 = zext i1 %0 to i8
  %10 = getelementptr inbounds nuw [5 x %struct.ErrorData], ptr @errordata, i64 0, i64 %8, i32 4
  store i8 %9, ptr %10, align 1
  ret i32 0
}